ccopy_reg
_reconstructor
p0
(cnltk.tokenize.regexp
RegexpTokenizer
p1
c__builtin__
object
p2
Ntp3
Rp4
(dp5
S'_gaps'
p6
I00
sS'_flags'
p7
I56
sS'_pattern'
p8
S'\\w+'
p9
sS'_discard_empty'
p10
I01
sS'_regexp'
p11
cre
_compile
p12
(g9
I56
tp13
Rp14
sb.